; Function Attrs: nofree norecurse nosync nounwind memory(argmem: readwrite) uwtable
define hidden void @aom_highbd_paeth_predictor_32x64_c(ptr nocapture noundef writeonly %0, i64 noundef %1, ptr nocapture noundef readonly %2, ptr nocapture noundef readonly %3, i32 noundef %4) local_unnamed_addr #0 {
  %6 = getelementptr inbounds i8, ptr %2, i64 -2
  %7 = load i16, ptr %6, align 2
  %8 = zext i16 %7 to i32
  br label %.preheader.us.i

.preheader.us.i:                                  ; preds = %._crit_edge.us.i, %5
  %indvars.iv23.i = phi i64 [ 0, %5 ], [ %indvars.iv.next24.i, %._crit_edge.us.i ]
  %.019.us.i = phi ptr [ %0, %5 ], [ %26, %._crit_edge.us.i ]
  %9 = getelementptr inbounds i16, ptr %3, i64 %indvars.iv23.i
  br label %10

10:                                               ; preds = %10, %.preheader.us.i
  %indvars.iv.i = phi i64 [ 0, %.preheader.us.i ], [ %indvars.iv.next.i, %10 ]
  %11 = load i16, ptr %9, align 2
  %12 = getelementptr inbounds i16, ptr %2, i64 %indvars.iv.i
  %13 = load i16, ptr %12, align 2
  %14 = zext i16 %13 to i32
  %15 = zext i16 %11 to i32
  %16 = sub nsw i32 %15, %8
  %17 = add nsw i32 %16, %14
  %18 = sub nsw i32 %17, %15
  %19 = tail call range(i32 0, 131071) i32 @llvm.abs.i32(i32 %18, i1 true)
  %20 = tail call range(i32 0, 131071) i32 @llvm.abs.i32(i32 %16, i1 true)
  %21 = sub nsw i32 %17, %8
  %22 = tail call range(i32 0, 131071) i32 @llvm.abs.i32(i32 %21, i1 true)
  %.not.i.us.i = icmp ugt i32 %19, %20
  %.not18.i.us.i = icmp ugt i32 %19, %22
  %or.cond.i.us.i = select i1 %.not.i.us.i, i1 true, i1 %.not18.i.us.i
  %.not19.i.us.i = icmp ugt i32 %20, %22
  %23 = select i1 %.not19.i.us.i, i16 %7, i16 %13
  %24 = select i1 %or.cond.i.us.i, i16 %23, i16 %11
  %25 = getelementptr inbounds i16, ptr %.019.us.i, i64 %indvars.iv.i
  store i16 %24, ptr %25, align 2
  %indvars.iv.next.i = add nuw nsw i64 %indvars.iv.i, 1
  %exitcond.not.i = icmp eq i64 %indvars.iv.next.i, 32
  br i1 %exitcond.not.i, label %._crit_edge.us.i, label %10, !llvm.loop !35

._crit_edge.us.i:                                 ; preds = %10
  %26 = getelementptr inbounds i16, ptr %.019.us.i, i64 %1
  %indvars.iv.next24.i = add nuw nsw i64 %indvars.iv23.i, 1
  %exitcond27.not.i = icmp eq i64 %indvars.iv.next24.i, 64
  br i1 %exitcond27.not.i, label %highbd_paeth_predictor.exit, label %.preheader.us.i, !llvm.loop !36

highbd_paeth_predictor.exit:                      ; preds = %._crit_edge.us.i
  ret void
}